
a.out:     file format elf64-x86-64


Disassembly of section .text:

0000000000001120 <_start>:
    1120:	31 ed                	xor    %ebp,%ebp
    1122:	49 89 d1             	mov    %rdx,%r9
    1125:	5e                   	pop    %rsi
    1126:	48 89 e2             	mov    %rsp,%rdx
    1129:	48 83 e4 f0          	and    $0xfffffffffffffff0,%rsp
    112d:	50                   	push   %rax
    112e:	54                   	push   %rsp
    112f:	4c 8d 05 ba 05 00 00 	lea    0x5ba(%rip),%r8        # 16f0 <__libc_csu_fini>
    1136:	48 8d 0d 53 05 00 00 	lea    0x553(%rip),%rcx        # 1690 <__libc_csu_init>
    113d:	48 8d 3d 50 04 00 00 	lea    0x450(%rip),%rdi        # 1594 <main>
    1144:	ff 15 96 2e 00 00    	callq  *0x2e96(%rip)        # 3fe0 <__libc_start_main@GLIBC_2.2.5>
    114a:	f4                   	hlt    
    114b:	0f 1f 44 00 00       	nopl   0x0(%rax,%rax,1)

0000000000001150 <deregister_tm_clones>:
    1150:	48 8d 3d 41 2f 00 00 	lea    0x2f41(%rip),%rdi        # 4098 <stdout@@GLIBC_2.2.5>
    1157:	48 8d 05 3a 2f 00 00 	lea    0x2f3a(%rip),%rax        # 4098 <stdout@@GLIBC_2.2.5>
    115e:	48 39 f8             	cmp    %rdi,%rax
    1161:	74 15                	je     1178 <deregister_tm_clones+0x28>
    1163:	48 8b 05 6e 2e 00 00 	mov    0x2e6e(%rip),%rax        # 3fd8 <_ITM_deregisterTMCloneTable>
    116a:	48 85 c0             	test   %rax,%rax
    116d:	74 09                	je     1178 <deregister_tm_clones+0x28>
    116f:	ff e0                	jmpq   *%rax
    1171:	0f 1f 80 00 00 00 00 	nopl   0x0(%rax)
    1178:	c3                   	retq   
    1179:	0f 1f 80 00 00 00 00 	nopl   0x0(%rax)

0000000000001180 <register_tm_clones>:
    1180:	48 8d 3d 11 2f 00 00 	lea    0x2f11(%rip),%rdi        # 4098 <stdout@@GLIBC_2.2.5>
    1187:	48 8d 35 0a 2f 00 00 	lea    0x2f0a(%rip),%rsi        # 4098 <stdout@@GLIBC_2.2.5>
    118e:	48 29 fe             	sub    %rdi,%rsi
    1191:	48 c1 fe 03          	sar    $0x3,%rsi
    1195:	48 89 f0             	mov    %rsi,%rax
    1198:	48 c1 e8 3f          	shr    $0x3f,%rax
    119c:	48 01 c6             	add    %rax,%rsi
    119f:	48 d1 fe             	sar    %rsi
    11a2:	74 14                	je     11b8 <register_tm_clones+0x38>
    11a4:	48 8b 05 45 2e 00 00 	mov    0x2e45(%rip),%rax        # 3ff0 <_ITM_registerTMCloneTable>
    11ab:	48 85 c0             	test   %rax,%rax
    11ae:	74 08                	je     11b8 <register_tm_clones+0x38>
    11b0:	ff e0                	jmpq   *%rax
    11b2:	66 0f 1f 44 00 00    	nopw   0x0(%rax,%rax,1)
    11b8:	c3                   	retq   
    11b9:	0f 1f 80 00 00 00 00 	nopl   0x0(%rax)

00000000000011c0 <__do_global_dtors_aux>:
    11c0:	80 3d d9 2e 00 00 00 	cmpb   $0x0,0x2ed9(%rip)        # 40a0 <completed.7325>
    11c7:	75 2f                	jne    11f8 <__do_global_dtors_aux+0x38>
    11c9:	55                   	push   %rbp
    11ca:	48 83 3d 26 2e 00 00 	cmpq   $0x0,0x2e26(%rip)        # 3ff8 <__cxa_finalize@GLIBC_2.2.5>
    11d1:	00 
    11d2:	48 89 e5             	mov    %rsp,%rbp
    11d5:	74 0c                	je     11e3 <__do_global_dtors_aux+0x23>
    11d7:	48 8b 3d b2 2e 00 00 	mov    0x2eb2(%rip),%rdi        # 4090 <__dso_handle>
    11de:	e8 2d ff ff ff       	callq  1110 <__cxa_finalize@plt>
    11e3:	e8 68 ff ff ff       	callq  1150 <deregister_tm_clones>
    11e8:	c6 05 b1 2e 00 00 01 	movb   $0x1,0x2eb1(%rip)        # 40a0 <completed.7325>
    11ef:	5d                   	pop    %rbp
    11f0:	c3                   	retq   
    11f1:	0f 1f 80 00 00 00 00 	nopl   0x0(%rax)
    11f8:	c3                   	retq   
    11f9:	0f 1f 80 00 00 00 00 	nopl   0x0(%rax)

0000000000001200 <frame_dummy>:
    1200:	e9 7b ff ff ff       	jmpq   1180 <register_tm_clones>

0000000000001205 <view_portfolio>:
    1205:	55                   	push   %rbp
    1206:	48 89 e5             	mov    %rsp,%rbp
    1209:	48 83 ec 20          	sub    $0x20,%rsp
    120d:	48 89 7d e8          	mov    %rdi,-0x18(%rbp)
    1211:	48 83 7d e8 00       	cmpq   $0x0,-0x18(%rbp)
    1216:	75 0a                	jne    1222 <view_portfolio+0x1d>
    1218:	b8 01 00 00 00       	mov    $0x1,%eax
    121d:	e9 a1 00 00 00       	jmpq   12c3 <view_portfolio+0xbe>
    1222:	48 8d 3d df 0d 00 00 	lea    0xddf(%rip),%rdi        # 2008 <_IO_stdin_used+0x8>
    1229:	b8 00 00 00 00       	mov    $0x0,%eax
    122e:	e8 3d fe ff ff       	callq  1070 <printf@plt>
    1233:	48 8b 05 5e 2e 00 00 	mov    0x2e5e(%rip),%rax        # 4098 <stdout@@GLIBC_2.2.5>
    123a:	48 89 c7             	mov    %rax,%rdi
    123d:	e8 7e fe ff ff       	callq  10c0 <fflush@plt>
    1242:	48 8d 3d d1 0d 00 00 	lea    0xdd1(%rip),%rdi        # 201a <_IO_stdin_used+0x1a>
    1249:	e8 12 fe ff ff       	callq  1060 <system@plt>
    124e:	48 8b 05 43 2e 00 00 	mov    0x2e43(%rip),%rax        # 4098 <stdout@@GLIBC_2.2.5>
    1255:	48 89 c7             	mov    %rax,%rdi
    1258:	e8 63 fe ff ff       	callq  10c0 <fflush@plt>
    125d:	48 8d 3d bb 0d 00 00 	lea    0xdbb(%rip),%rdi        # 201f <_IO_stdin_used+0x1f>
    1264:	e8 d7 fd ff ff       	callq  1040 <puts@plt>
    1269:	48 8b 45 e8          	mov    -0x18(%rbp),%rax
    126d:	48 8b 40 08          	mov    0x8(%rax),%rax
    1271:	48 89 45 f8          	mov    %rax,-0x8(%rbp)
    1275:	48 83 7d f8 00       	cmpq   $0x0,-0x8(%rbp)
    127a:	75 3b                	jne    12b7 <view_portfolio+0xb2>
    127c:	48 8d 3d 9e 0d 00 00 	lea    0xd9e(%rip),%rdi        # 2021 <_IO_stdin_used+0x21>
    1283:	e8 b8 fd ff ff       	callq  1040 <puts@plt>
    1288:	eb 2d                	jmp    12b7 <view_portfolio+0xb2>
    128a:	48 8b 45 f8          	mov    -0x8(%rbp),%rax
    128e:	48 8d 50 04          	lea    0x4(%rax),%rdx
    1292:	48 8b 45 f8          	mov    -0x8(%rbp),%rax
    1296:	8b 00                	mov    (%rax),%eax
    1298:	89 c6                	mov    %eax,%esi
    129a:	48 8d 3d 9a 0d 00 00 	lea    0xd9a(%rip),%rdi        # 203b <_IO_stdin_used+0x3b>
    12a1:	b8 00 00 00 00       	mov    $0x0,%eax
    12a6:	e8 c5 fd ff ff       	callq  1070 <printf@plt>
    12ab:	48 8b 45 f8          	mov    -0x8(%rbp),%rax
    12af:	48 8b 40 10          	mov    0x10(%rax),%rax
    12b3:	48 89 45 f8          	mov    %rax,-0x8(%rbp)
    12b7:	48 83 7d f8 00       	cmpq   $0x0,-0x8(%rbp)
    12bc:	75 cc                	jne    128a <view_portfolio+0x85>
    12be:	b8 00 00 00 00       	mov    $0x0,%eax
    12c3:	c9                   	leaveq 
    12c4:	c3                   	retq   

00000000000012c5 <pick_symbol_with_AI>:
    12c5:	55                   	push   %rbp
    12c6:	48 89 e5             	mov    %rsp,%rbp
    12c9:	48 83 ec 30          	sub    $0x30,%rsp
    12cd:	89 7d dc             	mov    %edi,-0x24(%rbp)
    12d0:	83 7d dc 00          	cmpl   $0x0,-0x24(%rbp)
    12d4:	7f 0a                	jg     12e0 <pick_symbol_with_AI+0x1b>
    12d6:	b8 00 00 00 00       	mov    $0x0,%eax
    12db:	e9 a5 00 00 00       	jmpq   1385 <pick_symbol_with_AI+0xc0>
    12e0:	bf 18 00 00 00       	mov    $0x18,%edi
    12e5:	e8 c6 fd ff ff       	callq  10b0 <malloc@plt>
    12ea:	48 89 45 f0          	mov    %rax,-0x10(%rbp)
    12ee:	48 8b 45 f0          	mov    -0x10(%rbp),%rax
    12f2:	8b 55 dc             	mov    -0x24(%rbp),%edx
    12f5:	89 10                	mov    %edx,(%rax)
    12f7:	e8 04 fe ff ff       	callq  1100 <rand@plt>
    12fc:	89 c2                	mov    %eax,%edx
    12fe:	89 d0                	mov    %edx,%eax
    1300:	c1 f8 1f             	sar    $0x1f,%eax
    1303:	c1 e8 1e             	shr    $0x1e,%eax
    1306:	01 c2                	add    %eax,%edx
    1308:	83 e2 03             	and    $0x3,%edx
    130b:	29 c2                	sub    %eax,%edx
    130d:	89 d0                	mov    %edx,%eax
    130f:	83 c0 01             	add    $0x1,%eax
    1312:	89 45 ec             	mov    %eax,-0x14(%rbp)
    1315:	c7 45 fc 00 00 00 00 	movl   $0x0,-0x4(%rbp)
    131c:	eb 51                	jmp    136f <pick_symbol_with_AI+0xaa>
    131e:	8b 45 fc             	mov    -0x4(%rbp),%eax
    1321:	3b 45 ec             	cmp    -0x14(%rbp),%eax
    1324:	7d 37                	jge    135d <pick_symbol_with_AI+0x98>
    1326:	e8 d5 fd ff ff       	callq  1100 <rand@plt>
    132b:	89 c1                	mov    %eax,%ecx
    132d:	ba 4f ec c4 4e       	mov    $0x4ec4ec4f,%edx
    1332:	89 c8                	mov    %ecx,%eax
    1334:	f7 ea                	imul   %edx
    1336:	c1 fa 03             	sar    $0x3,%edx
    1339:	89 c8                	mov    %ecx,%eax
    133b:	c1 f8 1f             	sar    $0x1f,%eax
    133e:	29 c2                	sub    %eax,%edx
    1340:	89 d0                	mov    %edx,%eax
    1342:	6b c0 1a             	imul   $0x1a,%eax,%eax
    1345:	29 c1                	sub    %eax,%ecx
    1347:	89 c8                	mov    %ecx,%eax
    1349:	83 c0 41             	add    $0x41,%eax
    134c:	89 c1                	mov    %eax,%ecx
    134e:	48 8b 55 f0          	mov    -0x10(%rbp),%rdx
    1352:	8b 45 fc             	mov    -0x4(%rbp),%eax
    1355:	48 98                	cltq   
    1357:	88 4c 02 04          	mov    %cl,0x4(%rdx,%rax,1)
    135b:	eb 0e                	jmp    136b <pick_symbol_with_AI+0xa6>
    135d:	48 8b 55 f0          	mov    -0x10(%rbp),%rdx
    1361:	8b 45 fc             	mov    -0x4(%rbp),%eax
    1364:	48 98                	cltq   
    1366:	c6 44 02 04 00       	movb   $0x0,0x4(%rdx,%rax,1)
    136b:	83 45 fc 01          	addl   $0x1,-0x4(%rbp)
    136f:	83 7d fc 04          	cmpl   $0x4,-0x4(%rbp)
    1373:	7e a9                	jle    131e <pick_symbol_with_AI+0x59>
    1375:	48 8b 45 f0          	mov    -0x10(%rbp),%rax
    1379:	48 c7 40 10 00 00 00 	movq   $0x0,0x10(%rax)
    1380:	00 
    1381:	48 8b 45 f0          	mov    -0x10(%rbp),%rax
    1385:	c9                   	leaveq 
    1386:	c3                   	retq   

0000000000001387 <buy_stonks>:
    1387:	55                   	push   %rbp
    1388:	48 89 e5             	mov    %rsp,%rbp
    138b:	48 81 ec c0 00 00 00 	sub    $0xc0,%rsp
    1392:	48 89 bd 48 ff ff ff 	mov    %rdi,-0xb8(%rbp)
    1399:	48 83 bd 48 ff ff ff 	cmpq   $0x0,-0xb8(%rbp)
    13a0:	00 
    13a1:	75 0a                	jne    13ad <buy_stonks+0x26>
    13a3:	b8 01 00 00 00       	mov    $0x1,%eax
    13a8:	e9 31 01 00 00       	jmpq   14de <buy_stonks+0x157>
    13ad:	48 8d 35 98 0c 00 00 	lea    0xc98(%rip),%rsi        # 204c <_IO_stdin_used+0x4c>
    13b4:	48 8d 3d 93 0c 00 00 	lea    0xc93(%rip),%rdi        # 204e <_IO_stdin_used+0x4e>
    13bb:	e8 10 fd ff ff       	callq  10d0 <fopen@plt>
    13c0:	48 89 45 f0          	mov    %rax,-0x10(%rbp)
    13c4:	48 83 7d f0 00       	cmpq   $0x0,-0x10(%rbp)
    13c9:	75 16                	jne    13e1 <buy_stonks+0x5a>
    13cb:	48 8d 3d 86 0c 00 00 	lea    0xc86(%rip),%rdi        # 2058 <_IO_stdin_used+0x58>
    13d2:	e8 69 fc ff ff       	callq  1040 <puts@plt>
    13d7:	bf 01 00 00 00       	mov    $0x1,%edi
    13dc:	e8 0f fd ff ff       	callq  10f0 <exit@plt>
    13e1:	48 8b 55 f0          	mov    -0x10(%rbp),%rdx
    13e5:	48 8d 85 50 ff ff ff 	lea    -0xb0(%rbp),%rax
    13ec:	be 80 00 00 00       	mov    $0x80,%esi
    13f1:	48 89 c7             	mov    %rax,%rdi
    13f4:	e8 97 fc ff ff       	callq  1090 <fgets@plt>
    13f9:	48 8b 85 48 ff ff ff 	mov    -0xb8(%rbp),%rax
    1400:	8b 00                	mov    (%rax),%eax
    1402:	89 45 fc             	mov    %eax,-0x4(%rbp)
    1405:	c7 45 ec 00 00 00 00 	movl   $0x0,-0x14(%rbp)
    140c:	48 c7 45 e0 00 00 00 	movq   $0x0,-0x20(%rbp)
    1413:	00 
    1414:	48 8d 3d 65 0c 00 00 	lea    0xc65(%rip),%rdi        # 2080 <_IO_stdin_used+0x80>
    141b:	e8 20 fc ff ff       	callq  1040 <puts@plt>
    1420:	eb 47                	jmp    1469 <buy_stonks+0xe2>
    1422:	e8 d9 fc ff ff       	callq  1100 <rand@plt>
    1427:	99                   	cltd   
    1428:	f7 7d fc             	idivl  -0x4(%rbp)
    142b:	89 d0                	mov    %edx,%eax
    142d:	83 c0 01             	add    $0x1,%eax
    1430:	89 45 ec             	mov    %eax,-0x14(%rbp)
    1433:	8b 45 ec             	mov    -0x14(%rbp),%eax
    1436:	89 c7                	mov    %eax,%edi
    1438:	e8 88 fe ff ff       	callq  12c5 <pick_symbol_with_AI>
    143d:	48 89 45 e0          	mov    %rax,-0x20(%rbp)
    1441:	48 8b 85 48 ff ff ff 	mov    -0xb8(%rbp),%rax
    1448:	48 8b 50 08          	mov    0x8(%rax),%rdx
    144c:	48 8b 45 e0          	mov    -0x20(%rbp),%rax
    1450:	48 89 50 10          	mov    %rdx,0x10(%rax)
    1454:	48 8b 85 48 ff ff ff 	mov    -0xb8(%rbp),%rax
    145b:	48 8b 55 e0          	mov    -0x20(%rbp),%rdx
    145f:	48 89 50 08          	mov    %rdx,0x8(%rax)
    1463:	8b 45 ec             	mov    -0x14(%rbp),%eax
    1466:	29 45 fc             	sub    %eax,-0x4(%rbp)
    1469:	83 7d fc 00          	cmpl   $0x0,-0x4(%rbp)
    146d:	7f b3                	jg     1422 <buy_stonks+0x9b>
    146f:	48 8d 3d 35 0c 00 00 	lea    0xc35(%rip),%rdi        # 20ab <_IO_stdin_used+0xab>
    1476:	e8 c5 fb ff ff       	callq  1040 <puts@plt>
    147b:	bf 2d 01 00 00       	mov    $0x12d,%edi
    1480:	e8 2b fc ff ff       	callq  10b0 <malloc@plt>
    1485:	48 89 45 d8          	mov    %rax,-0x28(%rbp)
    1489:	48 8d 3d 29 0c 00 00 	lea    0xc29(%rip),%rdi        # 20b9 <_IO_stdin_used+0xb9>
    1490:	e8 ab fb ff ff       	callq  1040 <puts@plt>
    1495:	48 8b 45 d8          	mov    -0x28(%rbp),%rax
    1499:	48 89 c6             	mov    %rax,%rsi
    149c:	48 8d 3d 2e 0c 00 00 	lea    0xc2e(%rip),%rdi        # 20d1 <_IO_stdin_used+0xd1>
    14a3:	b8 00 00 00 00       	mov    $0x0,%eax
    14a8:	e8 33 fc ff ff       	callq  10e0 <__isoc99_scanf@plt>
    14ad:	48 8d 3d 23 0c 00 00 	lea    0xc23(%rip),%rdi        # 20d7 <_IO_stdin_used+0xd7>
    14b4:	e8 87 fb ff ff       	callq  1040 <puts@plt>
    14b9:	48 8b 45 d8          	mov    -0x28(%rbp),%rax
    14bd:	48 89 c7             	mov    %rax,%rdi
    14c0:	b8 00 00 00 00       	mov    $0x0,%eax
    14c5:	e8 a6 fb ff ff       	callq  1070 <printf@plt>
    14ca:	48 8b 85 48 ff ff ff 	mov    -0xb8(%rbp),%rax
    14d1:	48 89 c7             	mov    %rax,%rdi
    14d4:	e8 2c fd ff ff       	callq  1205 <view_portfolio>
    14d9:	b8 00 00 00 00       	mov    $0x0,%eax
    14de:	c9                   	leaveq 
    14df:	c3                   	retq   

00000000000014e0 <initialize_portfolio>:
    14e0:	55                   	push   %rbp
    14e1:	48 89 e5             	mov    %rsp,%rbp
    14e4:	48 83 ec 10          	sub    $0x10,%rsp
    14e8:	bf 10 00 00 00       	mov    $0x10,%edi
    14ed:	e8 be fb ff ff       	callq  10b0 <malloc@plt>
    14f2:	48 89 45 f8          	mov    %rax,-0x8(%rbp)
    14f6:	e8 05 fc ff ff       	callq  1100 <rand@plt>
    14fb:	89 c1                	mov    %eax,%ecx
    14fd:	ba c3 22 e7 81       	mov    $0x81e722c3,%edx
    1502:	89 c8                	mov    %ecx,%eax
    1504:	f7 ea                	imul   %edx
    1506:	8d 04 0a             	lea    (%rdx,%rcx,1),%eax
    1509:	c1 f8 0a             	sar    $0xa,%eax
    150c:	89 c2                	mov    %eax,%edx
    150e:	89 c8                	mov    %ecx,%eax
    1510:	c1 f8 1f             	sar    $0x1f,%eax
    1513:	29 c2                	sub    %eax,%edx
    1515:	89 d0                	mov    %edx,%eax
    1517:	69 c0 e2 07 00 00    	imul   $0x7e2,%eax,%eax
    151d:	29 c1                	sub    %eax,%ecx
    151f:	89 c8                	mov    %ecx,%eax
    1521:	8d 50 01             	lea    0x1(%rax),%edx
    1524:	48 8b 45 f8          	mov    -0x8(%rbp),%rax
    1528:	89 10                	mov    %edx,(%rax)
    152a:	48 8b 45 f8          	mov    -0x8(%rbp),%rax
    152e:	48 c7 40 08 00 00 00 	movq   $0x0,0x8(%rax)
    1535:	00 
    1536:	48 8b 45 f8          	mov    -0x8(%rbp),%rax
    153a:	c9                   	leaveq 
    153b:	c3                   	retq   

000000000000153c <free_portfolio>:
    153c:	55                   	push   %rbp
    153d:	48 89 e5             	mov    %rsp,%rbp
    1540:	48 83 ec 20          	sub    $0x20,%rsp
    1544:	48 89 7d e8          	mov    %rdi,-0x18(%rbp)
    1548:	48 8b 45 e8          	mov    -0x18(%rbp),%rax
    154c:	48 8b 40 08          	mov    0x8(%rax),%rax
    1550:	48 89 45 f8          	mov    %rax,-0x8(%rbp)
    1554:	48 c7 45 f0 00 00 00 	movq   $0x0,-0x10(%rbp)
    155b:	00 
    155c:	eb 20                	jmp    157e <free_portfolio+0x42>
    155e:	48 8b 45 f8          	mov    -0x8(%rbp),%rax
    1562:	48 8b 40 10          	mov    0x10(%rax),%rax
    1566:	48 89 45 f0          	mov    %rax,-0x10(%rbp)
    156a:	48 8b 45 f8          	mov    -0x8(%rbp),%rax
    156e:	48 89 c7             	mov    %rax,%rdi
    1571:	e8 ba fa ff ff       	callq  1030 <free@plt>
    1576:	48 8b 45 f0          	mov    -0x10(%rbp),%rax
    157a:	48 89 45 f8          	mov    %rax,-0x8(%rbp)
    157e:	48 83 7d f8 00       	cmpq   $0x0,-0x8(%rbp)
    1583:	75 d9                	jne    155e <free_portfolio+0x22>
    1585:	48 8b 45 e8          	mov    -0x18(%rbp),%rax
    1589:	48 89 c7             	mov    %rax,%rdi
    158c:	e8 9f fa ff ff       	callq  1030 <free@plt>
    1591:	90                   	nop
    1592:	c9                   	leaveq 
    1593:	c3                   	retq   

0000000000001594 <main>:
    1594:	55                   	push   %rbp
    1595:	48 89 e5             	mov    %rsp,%rbp
    1598:	48 83 ec 20          	sub    $0x20,%rsp
    159c:	89 7d ec             	mov    %edi,-0x14(%rbp)
    159f:	48 89 75 e0          	mov    %rsi,-0x20(%rbp)
    15a3:	48 8b 05 ee 2a 00 00 	mov    0x2aee(%rip),%rax        # 4098 <stdout@@GLIBC_2.2.5>
    15aa:	be 00 00 00 00       	mov    $0x0,%esi
    15af:	48 89 c7             	mov    %rax,%rdi
    15b2:	e8 99 fa ff ff       	callq  1050 <setbuf@plt>
    15b7:	bf 00 00 00 00       	mov    $0x0,%edi
    15bc:	e8 df fa ff ff       	callq  10a0 <time@plt>
    15c1:	89 c7                	mov    %eax,%edi
    15c3:	e8 b8 fa ff ff       	callq  1080 <srand@plt>
    15c8:	b8 00 00 00 00       	mov    $0x0,%eax
    15cd:	e8 0e ff ff ff       	callq  14e0 <initialize_portfolio>
    15d2:	48 89 45 f8          	mov    %rax,-0x8(%rbp)
    15d6:	48 83 7d f8 00       	cmpq   $0x0,-0x8(%rbp)
    15db:	75 16                	jne    15f3 <main+0x5f>
    15dd:	48 8d 3d 0d 0b 00 00 	lea    0xb0d(%rip),%rdi        # 20f1 <_IO_stdin_used+0xf1>
    15e4:	e8 57 fa ff ff       	callq  1040 <puts@plt>
    15e9:	bf 01 00 00 00       	mov    $0x1,%edi
    15ee:	e8 fd fa ff ff       	callq  10f0 <exit@plt>
    15f3:	c7 45 f4 00 00 00 00 	movl   $0x0,-0xc(%rbp)
    15fa:	48 8d 3d ff 0a 00 00 	lea    0xaff(%rip),%rdi        # 2100 <_IO_stdin_used+0x100>
    1601:	e8 3a fa ff ff       	callq  1040 <puts@plt>
    1606:	48 8d 3d 15 0b 00 00 	lea    0xb15(%rip),%rdi        # 2122 <_IO_stdin_used+0x122>
    160d:	e8 2e fa ff ff       	callq  1040 <puts@plt>
    1612:	48 8d 3d 24 0b 00 00 	lea    0xb24(%rip),%rdi        # 213d <_IO_stdin_used+0x13d>
    1619:	e8 22 fa ff ff       	callq  1040 <puts@plt>
    161e:	48 8d 3d 2c 0b 00 00 	lea    0xb2c(%rip),%rdi        # 2151 <_IO_stdin_used+0x151>
    1625:	e8 16 fa ff ff       	callq  1040 <puts@plt>
    162a:	48 8d 45 f4          	lea    -0xc(%rbp),%rax
    162e:	48 89 c6             	mov    %rax,%rsi
    1631:	48 8d 3d 2e 0b 00 00 	lea    0xb2e(%rip),%rdi        # 2166 <_IO_stdin_used+0x166>
    1638:	b8 00 00 00 00       	mov    $0x0,%eax
    163d:	e8 9e fa ff ff       	callq  10e0 <__isoc99_scanf@plt>
    1642:	8b 45 f4             	mov    -0xc(%rbp),%eax
    1645:	83 f8 01             	cmp    $0x1,%eax
    1648:	75 0e                	jne    1658 <main+0xc4>
    164a:	48 8b 45 f8          	mov    -0x8(%rbp),%rax
    164e:	48 89 c7             	mov    %rax,%rdi
    1651:	e8 31 fd ff ff       	callq  1387 <buy_stonks>
    1656:	eb 14                	jmp    166c <main+0xd8>
    1658:	8b 45 f4             	mov    -0xc(%rbp),%eax
    165b:	83 f8 02             	cmp    $0x2,%eax
    165e:	75 0c                	jne    166c <main+0xd8>
    1660:	48 8b 45 f8          	mov    -0x8(%rbp),%rax
    1664:	48 89 c7             	mov    %rax,%rdi
    1667:	e8 99 fb ff ff       	callq  1205 <view_portfolio>
    166c:	48 8b 45 f8          	mov    -0x8(%rbp),%rax
    1670:	48 89 c7             	mov    %rax,%rdi
    1673:	e8 c4 fe ff ff       	callq  153c <free_portfolio>
    1678:	48 8d 3d ea 0a 00 00 	lea    0xaea(%rip),%rdi        # 2169 <_IO_stdin_used+0x169>
    167f:	e8 bc f9 ff ff       	callq  1040 <puts@plt>
    1684:	bf 00 00 00 00       	mov    $0x0,%edi
    1689:	e8 62 fa ff ff       	callq  10f0 <exit@plt>
    168e:	66 90                	xchg   %ax,%ax

0000000000001690 <__libc_csu_init>:
    1690:	41 57                	push   %r15
    1692:	49 89 d7             	mov    %rdx,%r15
    1695:	41 56                	push   %r14
    1697:	49 89 f6             	mov    %rsi,%r14
    169a:	41 55                	push   %r13
    169c:	41 89 fd             	mov    %edi,%r13d
    169f:	41 54                	push   %r12
    16a1:	4c 8d 25 40 27 00 00 	lea    0x2740(%rip),%r12        # 3de8 <__frame_dummy_init_array_entry>
    16a8:	55                   	push   %rbp
    16a9:	48 8d 2d 40 27 00 00 	lea    0x2740(%rip),%rbp        # 3df0 <__init_array_end>
    16b0:	53                   	push   %rbx
    16b1:	4c 29 e5             	sub    %r12,%rbp
    16b4:	48 83 ec 08          	sub    $0x8,%rsp
    16b8:	e8 43 f9 ff ff       	callq  1000 <_init>
    16bd:	48 c1 fd 03          	sar    $0x3,%rbp
    16c1:	74 1b                	je     16de <__libc_csu_init+0x4e>
    16c3:	31 db                	xor    %ebx,%ebx
    16c5:	0f 1f 00             	nopl   (%rax)
    16c8:	4c 89 fa             	mov    %r15,%rdx
    16cb:	4c 89 f6             	mov    %r14,%rsi
    16ce:	44 89 ef             	mov    %r13d,%edi
    16d1:	41 ff 14 dc          	callq  *(%r12,%rbx,8)
    16d5:	48 83 c3 01          	add    $0x1,%rbx
    16d9:	48 39 dd             	cmp    %rbx,%rbp
    16dc:	75 ea                	jne    16c8 <__libc_csu_init+0x38>
    16de:	48 83 c4 08          	add    $0x8,%rsp
    16e2:	5b                   	pop    %rbx
    16e3:	5d                   	pop    %rbp
    16e4:	41 5c                	pop    %r12
    16e6:	41 5d                	pop    %r13
    16e8:	41 5e                	pop    %r14
    16ea:	41 5f                	pop    %r15
    16ec:	c3                   	retq   
    16ed:	0f 1f 00             	nopl   (%rax)

00000000000016f0 <__libc_csu_fini>:
    16f0:	c3                   	retq   
